target datalayout = "e-m:e-p270:32:32-p271:32:32-p272:64:64-i64:64-i128:128-f80:128-n8:16:32:64-S128"
target triple = "x86_64-pc-linux-gnu"

%struct.H5HL_t = type { i64, i64, i64, i64, i8, ptr, ptr, i64, i64, i64, ptr, i64, i64, ptr }

@H5HL_init_g = external global i8, align 1
@H5_libterm_g = external global i8, align 1
@.str.2 = private unnamed_addr constant [103 x i8] c"generated/home/dtcxzyw/WorkSpace/Projects/compilers/llvm-opt-benchmark/bench/hdf5/hdf5/src/H5HLcache.c\00", align 1
@__func__.H5HL__cache_prefix_get_final_load_size = private unnamed_addr constant [39 x i8] c"H5HL__cache_prefix_get_final_load_size\00", align 1
@H5E_HEAP_g = external global i64, align 8
@H5E_CANTDECODE_g = external global i64, align 8
@.str.3 = private unnamed_addr constant [31 x i8] c"can't decode local heap header\00", align 1

; Function Attrs: nounwind uwtable
define internal i32 @H5HL__cache_prefix_get_final_load_size(ptr noundef %0, i64 noundef %1, ptr noundef %2, ptr noundef %3) #0 {
  %5 = alloca ptr, align 8
  %6 = alloca i64, align 8
  %7 = alloca ptr, align 8
  %8 = alloca ptr, align 8
  %9 = alloca ptr, align 8
  %10 = alloca ptr, align 8
  %11 = alloca %struct.H5HL_t, align 8
  %12 = alloca i32, align 4
  %13 = alloca i8, align 1
  store ptr %0, ptr %5, align 8, !tbaa !3
  store i64 %1, ptr %6, align 8, !tbaa !13
  store ptr %2, ptr %7, align 8, !tbaa !3
  store ptr %3, ptr %8, align 8, !tbaa !7
  call void @llvm.lifetime.start.p0(i64 8, ptr %9) #7
  %14 = load ptr, ptr %5, align 8, !tbaa !3
  store ptr %14, ptr %9, align 8, !tbaa !15
  call void @llvm.lifetime.start.p0(i64 8, ptr %10) #7
  %15 = load ptr, ptr %7, align 8, !tbaa !3
  store ptr %15, ptr %10, align 8, !tbaa !17
  call void @llvm.lifetime.start.p0(i64 112, ptr %11) #7
  call void @llvm.lifetime.start.p0(i64 4, ptr %12) #7
  store i32 0, ptr %12, align 4, !tbaa !19
  call void @llvm.lifetime.start.p0(i64 1, ptr %13) #7
  store i8 0, ptr %13, align 1, !tbaa !9
  %16 = load i8, ptr @H5HL_init_g, align 1, !tbaa !9, !range !11, !noundef !12
  %17 = trunc i8 %16 to i1
  br i1 %17, label %22, label %18

18:                                               ; preds = %4
  %19 = load i8, ptr @H5_libterm_g, align 1, !tbaa !9, !range !11, !noundef !12
  %20 = trunc i8 %19 to i1
  %21 = xor i1 %20, true
  br label %22

22:                                               ; preds = %18, %4
  %23 = phi i1 [ true, %4 ], [ %21, %18 ]
  %24 = xor i1 %23, true
  %25 = xor i1 %24, true
  %26 = zext i1 %25 to i32
  %27 = sext i32 %26 to i64
  %28 = call i64 @llvm.expect.i64(i64 %27, i64 1)
  %29 = icmp ne i64 %28, 0
  br i1 %29, label %30, label %87

30:                                               ; preds = %22
  call void @llvm.memset.p0.i64(ptr align 8 %11, i8 0, i64 112, i1 false)
  %31 = load ptr, ptr %9, align 8, !tbaa !15
  %32 = load i64, ptr %6, align 8, !tbaa !13
  %33 = load ptr, ptr %10, align 8, !tbaa !17
  %34 = call i32 @H5HL__hdr_deserialize(ptr noundef %11, ptr noundef %31, i64 noundef %32, ptr noundef %33)
  %35 = icmp slt i32 %34, 0
  br i1 %35, label %36, label %55

36:                                               ; preds = %30
  br label %37

37:                                               ; preds = %36
  br label %38

38:                                               ; preds = %37
  br label %39

39:                                               ; preds = %38
  %40 = load i64, ptr @H5E_HEAP_g, align 8, !tbaa !13
  %41 = load i64, ptr @H5E_CANTDECODE_g, align 8, !tbaa !13
  %42 = call i32 (ptr, ptr, i32, i64, i64, ptr, ...) @H5E_printf_stack(ptr noundef @.str.2, ptr noundef @__func__.H5HL__cache_prefix_get_final_load_size, i32 noundef 368, i64 noundef %40, i64 noundef %41, ptr noundef @.str.3)
  br label %43

43:                                               ; preds = %39
  br label %44

44:                                               ; preds = %43
  store i8 1, ptr %13, align 1, !tbaa !9
  %45 = load i8, ptr %13, align 1, !tbaa !9, !range !11, !noundef !12
  %46 = trunc i8 %45 to i1
  %47 = zext i1 %46 to i8
  store i8 %47, ptr %13, align 1, !tbaa !9
  br label %48

48:                                               ; preds = %44
  br label %49

49:                                               ; preds = %48
  br label %50

50:                                               ; preds = %49
  store i32 -1, ptr %12, align 4, !tbaa !19
  br label %86

51:                                               ; No predecessors!
  br label %52

52:                                               ; preds = %51
  br label %53

53:                                               ; preds = %52
  br label %54

54:                                               ; preds = %53
  br label %55

55:                                               ; preds = %54, %30
  %56 = getelementptr inbounds nuw %struct.H5HL_t, ptr %11, i32 0, i32 8
  %57 = load i64, ptr %56, align 8, !tbaa !21
  %58 = load ptr, ptr %8, align 8, !tbaa !7
  store i64 %57, ptr %58, align 8, !tbaa !13
  %59 = getelementptr inbounds nuw %struct.H5HL_t, ptr %11, i32 0, i32 12
  %60 = load i64, ptr %59, align 8, !tbaa !26
  %61 = icmp ne i64 %60, 0
  br i1 %61, label %62, label %85

62:                                               ; preds = %55
  %63 = getelementptr inbounds nuw %struct.H5HL_t, ptr %11, i32 0, i32 7
  %64 = load i64, ptr %63, align 8, !tbaa !27
  %65 = getelementptr inbounds nuw %struct.H5HL_t, ptr %11, i32 0, i32 8
  %66 = load i64, ptr %65, align 8, !tbaa !21
  %67 = add i64 %64, %66
  %68 = icmp ne i64 %67, -1
  br i1 %68, label %69, label %84

69:                                               ; preds = %62
  %70 = getelementptr inbounds nuw %struct.H5HL_t, ptr %11, i32 0, i32 7
  %71 = load i64, ptr %70, align 8, !tbaa !27
  %72 = getelementptr inbounds nuw %struct.H5HL_t, ptr %11, i32 0, i32 8
  %73 = load i64, ptr %72, align 8, !tbaa !21
  %74 = add i64 %71, %73
  %75 = getelementptr inbounds nuw %struct.H5HL_t, ptr %11, i32 0, i32 11
  %76 = load i64, ptr %75, align 8, !tbaa !28
  %77 = icmp eq i64 %74, %76
  br i1 %77, label %78, label %84

78:                                               ; preds = %69
  %79 = getelementptr inbounds nuw %struct.H5HL_t, ptr %11, i32 0, i32 12
  %80 = load i64, ptr %79, align 8, !tbaa !26
  %81 = load ptr, ptr %8, align 8, !tbaa !7
  %82 = load i64, ptr %81, align 8, !tbaa !13
  %83 = add i64 %82, %80
  store i64 %83, ptr %81, align 8, !tbaa !13
  br label %84

84:                                               ; preds = %78, %69, %62
  br label %85

85:                                               ; preds = %84, %55
  br label %86

86:                                               ; preds = %85, %50
  br label %87

87:                                               ; preds = %86, %22
  %88 = load i32, ptr %12, align 4, !tbaa !19
  call void @llvm.lifetime.end.p0(i64 1, ptr %13) #7
  call void @llvm.lifetime.end.p0(i64 4, ptr %12) #7
  call void @llvm.lifetime.end.p0(i64 112, ptr %11) #7
  call void @llvm.lifetime.end.p0(i64 8, ptr %10) #7
  call void @llvm.lifetime.end.p0(i64 8, ptr %9) #7
  ret i32 %88
}