; Function Attrs: nounwind uwtable
define internal range(i32 -1, 1) i32 @H5HL__cache_prefix_get_final_load_size(ptr noundef %0, i64 noundef %1, ptr noundef readonly captures(none) %2, ptr noundef writeonly captures(none) %3) #1 {
  %5 = alloca %struct.H5HL_t, align 8
  call void @llvm.lifetime.start.p0(i64 112, ptr nonnull %5) #9
  %6 = load i8, ptr @H5HL_init_g, align 1, !tbaa !3, !range !7, !noundef !8
  %7 = trunc nuw i8 %6 to i1
  %8 = load i8, ptr @H5_libterm_g, align 1, !range !7
  %9 = trunc nuw i8 %8 to i1
  %10 = xor i1 %9, true
  %11 = select i1 %7, i1 true, i1 %10
  br i1 %11, label %12, label %33, !prof !9

12:                                               ; preds = %4
  call void @llvm.memset.p0.i64(ptr noundef nonnull align 8 dereferenceable(112) %5, i8 0, i64 112, i1 false)
  %13 = call fastcc i32 @H5HL__hdr_deserialize(ptr noundef %5, ptr noundef %0, i64 noundef %1, ptr noundef %2)
  %14 = icmp slt i32 %13, 0
  br i1 %14, label %15, label %19

15:                                               ; preds = %12
  %16 = load i64, ptr @H5E_HEAP_g, align 8, !tbaa !10
  %17 = load i64, ptr @H5E_CANTDECODE_g, align 8, !tbaa !10
  %18 = call i32 (ptr, ptr, i32, i64, i64, ptr, ...) @H5E_printf_stack(ptr noundef nonnull @.str.2, ptr noundef nonnull @__func__.H5HL__cache_prefix_get_final_load_size, i32 noundef 368, i64 noundef %16, i64 noundef %17, ptr noundef nonnull @.str.3) #9
  br label %33

19:                                               ; preds = %12
  %20 = getelementptr inbounds nuw i8, ptr %5, i64 64
  %21 = load i64, ptr %20, align 8, !tbaa !12
  store i64 %21, ptr %3, align 8, !tbaa !10
  %22 = getelementptr inbounds nuw i8, ptr %5, i64 96
  %23 = load i64, ptr %22, align 8, !tbaa !19
  %.not = icmp eq i64 %23, 0
  br i1 %.not, label %33, label %24

24:                                               ; preds = %19
  %25 = getelementptr inbounds nuw i8, ptr %5, i64 56
  %26 = load i64, ptr %25, align 8, !tbaa !20
  %27 = add i64 %26, %21
  %.not10 = icmp ne i64 %27, -1
  %28 = getelementptr inbounds nuw i8, ptr %5, i64 88
  %29 = load i64, ptr %28, align 8
  %30 = icmp eq i64 %27, %29
  %or.cond = select i1 %.not10, i1 %30, i1 false
  br i1 %or.cond, label %31, label %33

31:                                               ; preds = %24
  %32 = add i64 %23, %21
  store i64 %32, ptr %3, align 8, !tbaa !10
  br label %33

33:                                               ; preds = %15, %24, %31, %19, %4
  %.0 = phi i32 [ -1, %15 ], [ 0, %31 ], [ 0, %24 ], [ 0, %19 ], [ 0, %4 ]
  call void @llvm.lifetime.end.p0(i64 112, ptr nonnull %5) #9
  ret i32 %.0
}